; Function Attrs: nounwind uwtable
define i32 @Abc_TtGetCM3Pat(ptr noundef readonly captures(none) %0, i32 noundef %1, ptr noundef captures(none) %2, ptr noundef captures(none) initializes((4, 8)) %3, ptr noundef %4) local_unnamed_addr #3 {
  %6 = add nsw i32 %1, -3
  %7 = getelementptr inbounds nuw i8, ptr %3, i64 4
  store i32 0, ptr %7, align 4, !tbaa !14
  %.not39 = icmp eq i32 %6, 31
  br i1 %.not39, label %.critedge, label %.lr.ph

.lr.ph:                                           ; preds = %5
  %8 = shl nuw i32 1, %6
  %.phi.trans.insert.i = getelementptr inbounds nuw i8, ptr %3, i64 8
  %.not = icmp eq ptr %4, null
  %9 = tail call i32 @llvm.smax.i32(i32 %1, i32 9)
  %10 = add nsw i32 %9, -9
  %smax = tail call i32 @llvm.smax.i32(i32 %8, i32 1)
  %wide.trip.count = zext nneg i32 %smax to i64
  br label %13

.preheader:                                       ; preds = %66
  %.val3236.pre = load i32, ptr %7, align 4, !tbaa !14
  %11 = icmp sgt i32 %.val3236.pre, 0
  br i1 %11, label %.lr.ph38, label %.critedge

.lr.ph38:                                         ; preds = %.preheader
  %12 = getelementptr i8, ptr %3, i64 8
  %.val34 = load ptr, ptr %12, align 8, !tbaa !18
  br label %67

13:                                               ; preds = %.lr.ph, %66
  %indvars.iv = phi i64 [ 0, %.lr.ph ], [ %indvars.iv.next, %66 ]
  %14 = getelementptr inbounds nuw i8, ptr %0, i64 %indvars.iv
  %15 = load i8, ptr %14, align 1, !tbaa !19
  %16 = zext i8 %15 to i64
  %17 = getelementptr inbounds nuw i32, ptr %2, i64 %16
  %18 = load i32, ptr %17, align 4, !tbaa !7
  %19 = icmp eq i32 %18, -1
  br i1 %19, label %20, label %50

20:                                               ; preds = %13
  %.val33 = load i32, ptr %7, align 4, !tbaa !14
  store i32 %.val33, ptr %17, align 4, !tbaa !7
  %21 = load i8, ptr %14, align 1, !tbaa !19
  %22 = zext i8 %21 to i32
  %23 = load i32, ptr %3, align 8, !tbaa !20
  %24 = icmp eq i32 %.val33, %23
  br i1 %24, label %25, label %.Vec_IntGrow.exit10_crit_edge.i

.Vec_IntGrow.exit10_crit_edge.i:                  ; preds = %20
  %.pre.i = load ptr, ptr %.phi.trans.insert.i, align 8, !tbaa !18
  br label %Vec_IntPush.exit

25:                                               ; preds = %20
  %26 = icmp slt i32 %.val33, 16
  br i1 %26, label %27, label %34

27:                                               ; preds = %25
  %28 = load ptr, ptr %.phi.trans.insert.i, align 8, !tbaa !18
  %.not9.i.i = icmp eq ptr %28, null
  br i1 %.not9.i.i, label %31, label %29

29:                                               ; preds = %27
  %30 = tail call dereferenceable_or_null(64) ptr @realloc(ptr noundef nonnull %28, i64 noundef 64) #25
  br label %Vec_IntGrow.exit.i

31:                                               ; preds = %27
  %32 = tail call noalias dereferenceable_or_null(64) ptr @malloc(i64 noundef 64) #26
  br label %Vec_IntGrow.exit.i

Vec_IntGrow.exit.i:                               ; preds = %31, %29
  %33 = phi ptr [ %30, %29 ], [ %32, %31 ]
  store ptr %33, ptr %.phi.trans.insert.i, align 8, !tbaa !18
  store i32 16, ptr %3, align 8, !tbaa !20
  br label %Vec_IntPush.exit

34:                                               ; preds = %25
  %35 = shl nuw nsw i32 %.val33, 1
  %36 = load ptr, ptr %.phi.trans.insert.i, align 8, !tbaa !18
  %.not9.i9.i = icmp eq ptr %36, null
  %37 = zext nneg i32 %35 to i64
  %38 = shl nuw nsw i64 %37, 2
  br i1 %.not9.i9.i, label %41, label %39

39:                                               ; preds = %34
  %40 = tail call ptr @realloc(ptr noundef nonnull %36, i64 noundef %38) #25
  br label %43

41:                                               ; preds = %34
  %42 = tail call noalias ptr @malloc(i64 noundef %38) #26
  br label %43

43:                                               ; preds = %41, %39
  %44 = phi ptr [ %40, %39 ], [ %42, %41 ]
  store ptr %44, ptr %.phi.trans.insert.i, align 8, !tbaa !18
  store i32 %35, ptr %3, align 8, !tbaa !20
  br label %Vec_IntPush.exit

Vec_IntPush.exit:                                 ; preds = %.Vec_IntGrow.exit10_crit_edge.i, %Vec_IntGrow.exit.i, %43
  %45 = phi ptr [ %.pre.i, %.Vec_IntGrow.exit10_crit_edge.i ], [ %44, %43 ], [ %33, %Vec_IntGrow.exit.i ]
  %46 = load i32, ptr %7, align 4, !tbaa !14
  %47 = add nsw i32 %46, 1
  store i32 %47, ptr %7, align 4, !tbaa !14
  %48 = sext i32 %46 to i64
  %49 = getelementptr inbounds i32, ptr %45, i64 %48
  store i32 %22, ptr %49, align 4, !tbaa !7
  br label %50

50:                                               ; preds = %Vec_IntPush.exit, %13
  br i1 %.not, label %66, label %51

51:                                               ; preds = %50
  %52 = load i8, ptr %14, align 1, !tbaa !19
  %53 = zext i8 %52 to i64
  %54 = getelementptr inbounds nuw i32, ptr %2, i64 %53
  %55 = load i32, ptr %54, align 4, !tbaa !7
  %56 = shl i32 %55, %10
  %57 = sext i32 %56 to i64
  %58 = getelementptr inbounds i64, ptr %4, i64 %57
  %59 = and i64 %indvars.iv, 63
  %60 = shl nuw i64 1, %59
  %61 = lshr i64 %indvars.iv, 6
  %62 = and i64 %61, 67108863
  %63 = getelementptr inbounds nuw i64, ptr %58, i64 %62
  %64 = load i64, ptr %63, align 8, !tbaa !3
  %65 = or i64 %64, %60
  store i64 %65, ptr %63, align 8, !tbaa !3
  br label %66

66:                                               ; preds = %50, %51
  %indvars.iv.next = add nuw nsw i64 %indvars.iv, 1
  %exitcond.not = icmp eq i64 %indvars.iv.next, %wide.trip.count
  br i1 %exitcond.not, label %.preheader, label %13, !llvm.loop !42

67:                                               ; preds = %.lr.ph38, %67
  %indvars.iv42 = phi i64 [ 0, %.lr.ph38 ], [ %indvars.iv.next43, %67 ]
  %68 = getelementptr inbounds nuw i32, ptr %.val34, i64 %indvars.iv42
  %69 = load i32, ptr %68, align 4, !tbaa !7
  %70 = sext i32 %69 to i64
  %71 = getelementptr inbounds i32, ptr %2, i64 %70
  store i32 -1, ptr %71, align 4, !tbaa !7
  %indvars.iv.next43 = add nuw nsw i64 %indvars.iv42, 1
  %.val32 = load i32, ptr %7, align 4, !tbaa !14
  %72 = sext i32 %.val32 to i64
  %73 = icmp slt i64 %indvars.iv.next43, %72
  br i1 %73, label %67, label %.critedge, !llvm.loop !43

.critedge:                                        ; preds = %67, %5, %.preheader
  %.val32.lcssa = phi i32 [ %.val3236.pre, %.preheader ], [ 0, %5 ], [ %.val32, %67 ]
  ret i32 %.val32.lcssa
}